; Function Attrs: mustprogress nofree norecurse nosync nounwind willreturn memory(read, inaccessiblemem: none) uwtable
define hidden noundef double @_ZNK2cv8tracking4impl3tld21TLDEnsembleClassifier24posteriorProbabilityFastEPKh(ptr noundef nonnull readonly align 8 captures(none) dereferenceable(76) %0, ptr noundef readonly captures(none) %1) local_unnamed_addr #6 align 2 {
  %3 = getelementptr inbounds nuw i8, ptr %0, i64 24
  %4 = getelementptr inbounds nuw i8, ptr %0, i64 32
  %5 = load ptr, ptr %4, align 8, !tbaa !27
  %6 = load ptr, ptr %3, align 8, !tbaa !26
  %7 = ptrtoint ptr %5 to i64
  %8 = ptrtoint ptr %6 to i64
  %9 = sub i64 %7, %8
  %10 = lshr exact i64 %9, 2
  %11 = trunc i64 %10 to i32
  %12 = icmp sgt i32 %11, 0
  br i1 %12, label %.lr.ph.i, label %_ZNK2cv8tracking4impl3tld21TLDEnsembleClassifier8codeFastEPKh.exit

.lr.ph.i:                                         ; preds = %2
  %13 = getelementptr inbounds nuw i8, ptr %0, i64 48
  %14 = load ptr, ptr %13, align 8, !tbaa !25
  %wide.trip.count.i = and i64 %10, 2147483647
  br label %15

15:                                               ; preds = %15, %.lr.ph.i
  %indvars.iv.i = phi i64 [ 0, %.lr.ph.i ], [ %indvars.iv.next.i, %15 ]
  %.0910.i = phi i32 [ 0, %.lr.ph.i ], [ %spec.select.i, %15 ]
  %16 = shl i32 %.0910.i, 1
  %17 = getelementptr inbounds nuw %"class.cv::Point_", ptr %14, i64 %indvars.iv.i
  %18 = load i32, ptr %17, align 4, !tbaa !19
  %19 = sext i32 %18 to i64
  %20 = getelementptr inbounds i8, ptr %1, i64 %19
  %21 = load i8, ptr %20, align 1, !tbaa !28
  %22 = getelementptr inbounds nuw i8, ptr %17, i64 4
  %23 = load i32, ptr %22, align 4, !tbaa !21
  %24 = sext i32 %23 to i64
  %25 = getelementptr inbounds i8, ptr %1, i64 %24
  %26 = load i8, ptr %25, align 1, !tbaa !28
  %27 = icmp ult i8 %21, %26
  %28 = zext i1 %27 to i32
  %spec.select.i = or disjoint i32 %16, %28
  %indvars.iv.next.i = add nuw nsw i64 %indvars.iv.i, 1
  %exitcond.not.i = icmp eq i64 %indvars.iv.next.i, %wide.trip.count.i
  br i1 %exitcond.not.i, label %_ZNK2cv8tracking4impl3tld21TLDEnsembleClassifier8codeFastEPKh.exit.loopexit, label %15, !llvm.loop !45

_ZNK2cv8tracking4impl3tld21TLDEnsembleClassifier8codeFastEPKh.exit.loopexit: ; preds = %15
  %29 = sext i32 %spec.select.i to i64
  br label %_ZNK2cv8tracking4impl3tld21TLDEnsembleClassifier8codeFastEPKh.exit

_ZNK2cv8tracking4impl3tld21TLDEnsembleClassifier8codeFastEPKh.exit: ; preds = %_ZNK2cv8tracking4impl3tld21TLDEnsembleClassifier8codeFastEPKh.exit.loopexit, %2
  %.09.lcssa.i = phi i64 [ 0, %2 ], [ %29, %_ZNK2cv8tracking4impl3tld21TLDEnsembleClassifier8codeFastEPKh.exit.loopexit ]
  %30 = load ptr, ptr %0, align 8, !tbaa !25
  %31 = getelementptr inbounds nuw %"class.cv::Point_", ptr %30, i64 %.09.lcssa.i
  %32 = load i32, ptr %31, align 4, !tbaa !19
  %33 = getelementptr inbounds nuw i8, ptr %31, i64 4
  %34 = load i32, ptr %33, align 4, !tbaa !21
  %35 = icmp eq i32 %32, 0
  %36 = icmp eq i32 %34, 0
  %or.cond = select i1 %35, i1 %36, i1 false
  %37 = sitofp i32 %34 to double
  %38 = sitofp i32 %32 to double
  %39 = fadd double %38, %37
  %40 = fdiv double %38, %39
  %.0 = select i1 %or.cond, double 0.000000e+00, double %40
  ret double %.0
}